(lp0
S'poi'
p1
aS'salary'
p2
aS'bonus'
p3
aS'total_payments'
p4
aS'total_stock_value'
p5
aS'poi_email_ratio'
p6
aS'deferral_payments'
p7
aS'deferred_income'
p8
aS'director_fees'
p9
aS'exercised_stock_options'
p10
aS'expenses'
p11
aS'loan_advances'
p12
aS'long_term_incentive'
p13
aS'other'
p14
aS'restricted_stock'
p15
aS'restricted_stock_deferred'
p16
a.